(lp0
(S'application/pdf'
p1
S'pdf'
p2
tp3
a(S'image/tiff'
p4
S'tiff'
p5
tp6
a(S'image/jpeg'
p7
S'jpg'
p8
tp9
a(S'image/gif'
p10
S'gif'
p11
tp12
a(S'image/png'
p13
S'png'
p14
tp15
a(S'text/plain'
p16
S'txt'
p17
tp18
a(S'application/msword'
p19
S'doc'
p20
tp21
a(S'application/vnd.ms-excel'
p22
S'xls'
p23
tp24
a.